; Function Attrs: mustprogress nofree norecurse nosync nounwind willreturn memory(argmem: write) uwtable
define void @_ZN6icu_7726UFormattedDateIntervalImplC2Ev(ptr noundef nonnull align 8 dereferenceable(48) initializes((0, 4), (16, 20), (24, 44)) %0) unnamed_addr #10 align 2 personality ptr @__gxx_personality_v0 {
  store i32 1430672896, ptr %0, align 8, !tbaa !15
  %2 = getelementptr inbounds nuw i8, ptr %0, i64 8
  %3 = getelementptr inbounds nuw i8, ptr %0, i64 16
  store i32 1178880342, ptr %3, align 8, !tbaa !17
  %4 = getelementptr inbounds nuw i8, ptr %0, i64 24
  store ptr getelementptr inbounds nuw inrange(-16, 48) (i8, ptr @_ZTVN6icu_7721FormattedDateIntervalE, i64 16), ptr %4, align 8, !tbaa !19
  %5 = getelementptr inbounds nuw i8, ptr %0, i64 32
  store ptr null, ptr %5, align 8, !tbaa !21
  %6 = getelementptr inbounds nuw i8, ptr %0, i64 40
  store i32 27, ptr %6, align 8, !tbaa !25
  store ptr %4, ptr %2, align 8, !tbaa !26
  ret void
}